(dp0
S'I3D_PLATFORM_IPHONE'
p1
NsS'I3D_OS_IPHONE'
p2
NsS'IW_DEBUG'
p3
NsS'IW_SDK'
p4
NsS'IW_USE_ASSERTIONS'
p5
NsS'IW_TRACE_CHANNEL_IFAWRAPPER'
p6
S'1'
p7
sS'IW_PLATFORM_IPHONE'
p8
NsS'__IPHONE_OS_VERSION_MIN_REQUIRED'
p9
S'43000'
p10
sS'S3E_BUILD_EXT'
p11
NsS'IW_ASSERTION_CHANNEL_IFAWRAPPER'
p12
g7
sS'IW_MKF_EDK'
p13
NsS'S3E_EXT_IFAWRAPPER'
p14
NsS'I3D_ARCH_ARM'
p15
NsS'IW_USE_TRACING'
p16
NsS'IW_TRACE_CHANNEL_IFAWRAPPER_VERBOSE'
p17
S'2'
p18
sS'IW_MKF_IFAWRAPPER_BUILD'
p19
Ns.