(dp0
S'S3E_ANDROID'
p1
NsS'I3D_OS_LINUX'
p2
NsS'IW_PLATFORM_LINUX'
p3
NsS'I3D_ARCH_ARM'
p4
NsS'IW_SDK'
p5
NsS'IW_USE_ASSERTIONS'
p6
NsS'S3E_EXT_IFAWRAPPER'
p7
NsS'IW_TRACE_CHANNEL_IFAWRAPPER'
p8
S'1'
p9
sS'IW_ASSERTION_CHANNEL_IFAWRAPPER'
p10
g9
sS'S3E_BUILD_EXT'
p11
NsS'IW_USE_TRACING'
p12
NsS'IW_MKF_EDK'
p13
NsS'I3D_PLATFORM_LINUX'
p14
NsS'IW_DEBUG'
p15
NsS'ANDROID'
p16
NsS'IW_TRACE_CHANNEL_IFAWRAPPER_VERBOSE'
p17
S'2'
p18
sS'IW_MKF_IFAWRAPPER_BUILD'
p19
Ns.